# SymbolsHelper-Confirmed: 6.0.0 amd64
libKF6Svg.so.6 libkf6svg6 #MINVER#
* Build-Depends-Package: libkf6svg-dev
 _ZN4KSvg3Svg11eventFilterEP7QObjectP6QEvent@Base 6.0.0
 _ZN4KSvg3Svg11qt_metacallEN11QMetaObject4CallEiPPv@Base 6.0.0
 _ZN4KSvg3Svg11qt_metacastEPKc@Base 6.0.0
 _ZN4KSvg3Svg11setColorSetENS0_8ColorSetE@Base 6.0.0
 _ZN4KSvg3Svg11setImageSetEPNS_8ImageSetE@Base 6.0.0
 _ZN4KSvg3Svg11sizeChangedEv@Base 6.0.0
 _ZN4KSvg3Svg12setImagePathERK7QString@Base 6.0.0
 _ZN4KSvg3Svg13repaintNeededEv@Base 6.0.0
 _ZN4KSvg3Svg13statusChangedENS0_6StatusE@Base 6.0.0
 _ZN4KSvg3Svg15colorSetChangedENS0_8ColorSetE@Base 6.0.0
 _ZN4KSvg3Svg15imageSetChangedEPNS_8ImageSetE@Base 6.0.0
 _ZN4KSvg3Svg16colorHintChangedEv@Base 6.0.0
 _ZN4KSvg3Svg16imagePathChangedEv@Base 6.0.0
 _ZN4KSvg3Svg16staticMetaObjectE@Base 6.0.0
 _ZN4KSvg3Svg19clearColorOverridesEv@Base 6.0.0
 _ZN4KSvg3Svg19setDevicePixelRatioEd@Base 6.0.0
 _ZN4KSvg3Svg22setUsingRenderingCacheEb@Base 6.0.0
 _ZN4KSvg3Svg25setContainsMultipleImagesEb@Base 6.0.0
 _ZN4KSvg3Svg26fromCurrentImageSetChangedEb@Base 6.0.0
 _ZN4KSvg3Svg5imageERK5QSizeRK7QString@Base 6.0.0
 _ZN4KSvg3Svg5paintEP8QPainterRK6QRectFRK7QString@Base 6.0.0
 _ZN4KSvg3Svg5paintEP8QPainterRK7QPointFRK7QString@Base 6.0.0
 _ZN4KSvg3Svg5paintEP8QPainteriiRK7QString@Base 6.0.0
 _ZN4KSvg3Svg5paintEP8QPainteriiiiRK7QString@Base 6.0.0
 _ZN4KSvg3Svg6pixmapERK7QString@Base 6.0.0
 _ZN4KSvg3Svg6resizeERK6QSizeF@Base 6.0.0
 _ZN4KSvg3Svg6resizeEdd@Base 6.0.0
 _ZN4KSvg3Svg6resizeEv@Base 6.0.0
 _ZN4KSvg3Svg8setColorENS0_15StyleSheetColorERK6QColor@Base 6.0.0
 _ZN4KSvg3Svg9setStatusENS0_6StatusE@Base 6.0.0
 _ZN4KSvg3SvgC1EP7QObject@Base 6.0.0
 _ZN4KSvg3SvgC2EP7QObject@Base 6.0.0
 _ZN4KSvg3SvgD0Ev@Base 6.0.0
 _ZN4KSvg3SvgD1Ev@Base 6.0.0
 _ZN4KSvg3SvgD2Ev@Base 6.0.0
 _ZN4KSvg8FrameSvg10clearCacheEv@Base 6.0.0
 _ZN4KSvg8FrameSvg10paintFrameEP8QPainterRK6QRectFS5_@Base 6.0.0
 _ZN4KSvg8FrameSvg10paintFrameEP8QPainterRK7QPointF@Base 6.0.0
 _ZN4KSvg8FrameSvg11framePixmapEv@Base 6.0.0
 _ZN4KSvg8FrameSvg11qt_metacallEN11QMetaObject4CallEiPPv@Base 6.0.0
 _ZN4KSvg8FrameSvg11qt_metacastEPKc@Base 6.0.0
 _ZN4KSvg8FrameSvg11resizeFrameERK6QSizeF@Base 6.0.0
 _ZN4KSvg8FrameSvg12setImagePathERK7QString@Base 6.0.0
 _ZN4KSvg8FrameSvg16setElementPrefixENS0_14LocationPrefixE@Base 6.0.0
 _ZN4KSvg8FrameSvg16setElementPrefixERK7QString@Base 6.0.0
 _ZN4KSvg8FrameSvg16staticMetaObjectE@Base 6.0.0
 _ZN4KSvg8FrameSvg17setEnabledBordersE6QFlagsINS0_13EnabledBorderEE@Base 6.0.0
 _ZN4KSvg8FrameSvg17setRepaintBlockedEb@Base 6.0.0
 _ZN4KSvg8FrameSvg19minimumDrawingWidthEv@Base 6.0.0
 _ZN4KSvg8FrameSvg20minimumDrawingHeightEv@Base 6.0.0
 _ZN4KSvg8FrameSvg25setCacheAllRenderedFramesEb@Base 6.0.0
 _ZN4KSvg8FrameSvg6prefixEv@Base 6.0.0
 _ZN4KSvg8FrameSvgC1EP7QObject@Base 6.0.0
 _ZN4KSvg8FrameSvgC2EP7QObject@Base 6.0.0
 _ZN4KSvg8FrameSvgD0Ev@Base 6.0.0
 _ZN4KSvg8FrameSvgD1Ev@Base 6.0.0
 _ZN4KSvg8FrameSvgD2Ev@Base 6.0.0
 _ZN4KSvg8ImageSet11qt_metacallEN11QMetaObject4CallEiPPv@Base 6.0.0
 _ZN4KSvg8ImageSet11qt_metacastEPKc@Base 6.0.0
 _ZN4KSvg8ImageSet11setBasePathERK7QString@Base 6.0.0
 _ZN4KSvg8ImageSet12setSelectorsERK5QListI7QStringE@Base 6.0.0
 _ZN4KSvg8ImageSet13setCacheLimitEi@Base 6.0.0
 _ZN4KSvg8ImageSet15basePathChangedERK7QString@Base 6.0.0
 _ZN4KSvg8ImageSet15imageSetChangedERK7QString@Base 6.0.0
 _ZN4KSvg8ImageSet15setImageSetNameERK7QString@Base 6.0.0
 _ZN4KSvg8ImageSet16staticMetaObjectE@Base 6.0.0
 _ZN4KSvg8ImageSet20setUseGlobalSettingsEb@Base 6.0.0
 _ZN4KSvg8ImageSetC1EP7QObject@Base 6.0.0
 _ZN4KSvg8ImageSetC1ERK7QStringS3_P7QObject@Base 6.0.0
 _ZN4KSvg8ImageSetC2EP7QObject@Base 6.0.0
 _ZN4KSvg8ImageSetC2ERK7QStringS3_P7QObject@Base 6.0.0
 _ZN4KSvg8ImageSetD0Ev@Base 6.0.0
 _ZN4KSvg8ImageSetD1Ev@Base 6.0.0
 _ZN4KSvg8ImageSetD2Ev@Base 6.0.0
 _ZNK4KSvg3Svg10hasElementE11QStringView@Base 6.0.0
 _ZNK4KSvg3Svg10hasElementERK7QString@Base 6.0.0
 _ZNK4KSvg3Svg10metaObjectEv@Base 6.0.0
 _ZNK4KSvg3Svg11elementRectE11QStringView@Base 6.0.0
 _ZNK4KSvg3Svg11elementRectERK7QString@Base 6.0.0
 _ZNK4KSvg3Svg11elementSizeE11QStringView@Base 6.0.0
 _ZNK4KSvg3Svg11elementSizeERK7QString@Base 6.0.0
 _ZNK4KSvg3Svg16devicePixelRatioEv@Base 6.0.0
 _ZNK4KSvg3Svg19fromCurrentImageSetEv@Base 6.0.0
 _ZNK4KSvg3Svg21isUsingRenderingCacheEv@Base 6.0.0
 _ZNK4KSvg3Svg22containsMultipleImagesEv@Base 6.0.0
 _ZNK4KSvg3Svg4sizeEv@Base 6.0.0
 _ZNK4KSvg3Svg5colorENS0_15StyleSheetColorE@Base 6.0.0
 _ZNK4KSvg3Svg6statusEv@Base 6.0.0
 _ZNK4KSvg3Svg7isValidEv@Base 6.0.0
 _ZNK4KSvg3Svg8colorSetEv@Base 6.0.0
 _ZNK4KSvg3Svg8imageSetEv@Base 6.0.0
 _ZNK4KSvg3Svg9imagePathEv@Base 6.0.0
 _ZNK4KSvg8FrameSvg10getMarginsERdS1_S1_S1_@Base 6.0.0
 _ZNK4KSvg8FrameSvg10marginSizeENS0_10MarginEdgeE@Base 6.0.0
 _ZNK4KSvg8FrameSvg10metaObjectEv@Base 6.0.0
 _ZNK4KSvg8FrameSvg12actualPrefixEv@Base 6.0.0
 _ZNK4KSvg8FrameSvg12contentsRectEv@Base 6.0.0
 _ZNK4KSvg8FrameSvg14enabledBordersEv@Base 6.0.0
 _ZNK4KSvg8FrameSvg15fixedMarginSizeENS0_10MarginEdgeE@Base 6.0.0
 _ZNK4KSvg8FrameSvg15getFixedMarginsERdS1_S1_S1_@Base 6.0.0
 _ZNK4KSvg8FrameSvg16hasElementPrefixENS0_14LocationPrefixE@Base 6.0.0
 _ZNK4KSvg8FrameSvg16hasElementPrefixERK7QString@Base 6.0.0
 _ZNK4KSvg8FrameSvg16isRepaintBlockedEv@Base 6.0.0
 _ZNK4KSvg8FrameSvg22cacheAllRenderedFramesEv@Base 6.0.0
 _ZNK4KSvg8FrameSvg4maskEv@Base 6.0.0
 _ZNK4KSvg8FrameSvg8getInsetERdS1_S1_S1_@Base 6.0.0
 _ZNK4KSvg8FrameSvg9alphaMaskEv@Base 6.0.0
 _ZNK4KSvg8FrameSvg9frameSizeEv@Base 6.0.0
 _ZNK4KSvg8FrameSvg9insetSizeENS0_10MarginEdgeE@Base 6.0.0
 _ZNK4KSvg8ImageSet10metaObjectEv@Base 6.0.0
 _ZNK4KSvg8ImageSet12imageSetNameEv@Base 6.0.0
 _ZNK4KSvg8ImageSet17useGlobalSettingsEv@Base 6.0.0
 _ZNK4KSvg8ImageSet23currentImageSetHasImageERK7QString@Base 6.0.0
 _ZNK4KSvg8ImageSet8basePathEv@Base 6.0.0
 _ZNK4KSvg8ImageSet8filePathERK7QString@Base 6.0.0
 _ZNK4KSvg8ImageSet8metadataEv@Base 6.0.0
 _ZNK4KSvg8ImageSet9imagePathERK7QString@Base 6.0.0
 _ZNK4KSvg8ImageSet9selectorsEv@Base 6.0.0
 _ZTI16KSharedDataCache@Base 6.0.0
 _ZTIN4KSvg3SvgE@Base 6.0.0
 _ZTIN4KSvg8FrameSvgE@Base 6.0.0
 _ZTIN4KSvg8ImageSetE@Base 6.0.0
 _ZTS16KSharedDataCache@Base 6.0.0
 _ZTSN4KSvg3SvgE@Base 6.0.0
 _ZTSN4KSvg8FrameSvgE@Base 6.0.0
 _ZTSN4KSvg8ImageSetE@Base 6.0.0
 _ZTVN4KSvg3SvgE@Base 6.0.0
 _ZTVN4KSvg8FrameSvgE@Base 6.0.0
 _ZTVN4KSvg8ImageSetE@Base 6.0.0
